; ModuleID = '4/1835.c'
source_filename = "4/1835.c"
target datalayout = "e-m:e-p270:32:32-p271:32:32-p272:64:64-i64:64-f80:128-n8:16:32:64-S128"
target triple = "x86_64-pc-linux-gnu"

@.str = private unnamed_addr constant [6 x i8] c"%d %d\00", align 1
@.str.1 = private unnamed_addr constant [3 x i8] c"%d\00", align 1
@.str.2 = private unnamed_addr constant [4 x i8] c"%d\0A\00", align 1

; Function Attrs: noinline nounwind uwtable
define dso_local void @main() #0 {
  %1 = alloca i32, align 4
  %2 = alloca i32, align 4
  %3 = alloca i32, align 4
  %4 = alloca [100 x i32*], align 16
  %5 = alloca i32, align 4
  %6 = alloca i32, align 4
  %7 = call i32 (i8*, ...) @__isoc99_scanf(i8* getelementptr inbounds ([6 x i8], [6 x i8]* @.str, i64 0, i64 0), i32* %5, i32* %6)
  store i32 0, i32* %1, align 4
  br label %8

8:                                                ; preds = %21, %0
  %9 = load i32, i32* %1, align 4
  %10 = load i32, i32* %5, align 4
  %11 = icmp slt i32 %9, %10
  br i1 %11, label %12, label %24

12:                                               ; preds = %8
  %13 = load i32, i32* %6, align 4
  %14 = sext i32 %13 to i64
  %15 = mul i64 %14, 4
  %16 = call noalias i8* @malloc(i64 %15) #3
  %17 = bitcast i8* %16 to i32*
  %18 = load i32, i32* %1, align 4
  %19 = sext i32 %18 to i64
  %20 = getelementptr inbounds [100 x i32*], [100 x i32*]* %4, i64 0, i64 %19
  store i32* %17, i32** %20, align 8
  br label %21

21:                                               ; preds = %12
  %22 = load i32, i32* %1, align 4
  %23 = add nsw i32 %22, 1
  store i32 %23, i32* %1, align 4
  br label %8

24:                                               ; preds = %8
  store i32 0, i32* %1, align 4
  br label %25

25:                                               ; preds = %47, %24
  %26 = load i32, i32* %1, align 4
  %27 = load i32, i32* %5, align 4
  %28 = icmp slt i32 %26, %27
  br i1 %28, label %29, label %50

29:                                               ; preds = %25
  store i32 0, i32* %2, align 4
  br label %30

30:                                               ; preds = %43, %29
  %31 = load i32, i32* %2, align 4
  %32 = load i32, i32* %6, align 4
  %33 = icmp slt i32 %31, %32
  br i1 %33, label %34, label %46

34:                                               ; preds = %30
  %35 = load i32, i32* %1, align 4
  %36 = sext i32 %35 to i64
  %37 = getelementptr inbounds [100 x i32*], [100 x i32*]* %4, i64 0, i64 %36
  %38 = load i32*, i32** %37, align 8
  %39 = load i32, i32* %2, align 4
  %40 = sext i32 %39 to i64
  %41 = getelementptr inbounds i32, i32* %38, i64 %40
  %42 = call i32 (i8*, ...) @__isoc99_scanf(i8* getelementptr inbounds ([3 x i8], [3 x i8]* @.str.1, i64 0, i64 0), i32* %41)
  br label %43

43:                                               ; preds = %34
  %44 = load i32, i32* %2, align 4
  %45 = add nsw i32 %44, 1
  store i32 %45, i32* %2, align 4
  br label %30

46:                                               ; preds = %30
  br label %47

47:                                               ; preds = %46
  %48 = load i32, i32* %1, align 4
  %49 = add nsw i32 %48, 1
  store i32 %49, i32* %1, align 4
  br label %25

50:                                               ; preds = %25
  store i32 0, i32* %2, align 4
  br label %51

51:                                               ; preds = %80, %50
  %52 = load i32, i32* %2, align 4
  %53 = load i32, i32* %6, align 4
  %54 = icmp slt i32 %52, %53
  br i1 %54, label %55, label %83

55:                                               ; preds = %51
  %56 = load i32, i32* %2, align 4
  store i32 %56, i32* %3, align 4
  store i32 0, i32* %1, align 4
  br label %57

57:                                               ; preds = %76, %55
  %58 = load i32, i32* %1, align 4
  %59 = load i32, i32* %5, align 4
  %60 = icmp slt i32 %58, %59
  br i1 %60, label %61, label %79

61:                                               ; preds = %57
  %62 = load i32, i32* %1, align 4
  %63 = sext i32 %62 to i64
  %64 = getelementptr inbounds [100 x i32*], [100 x i32*]* %4, i64 0, i64 %63
  %65 = load i32*, i32** %64, align 8
  %66 = load i32, i32* %3, align 4
  %67 = add nsw i32 %66, -1
  store i32 %67, i32* %3, align 4
  %68 = sext i32 %66 to i64
  %69 = getelementptr inbounds i32, i32* %65, i64 %68
  %70 = load i32, i32* %69, align 4
  %71 = call i32 (i8*, ...) @printf(i8* getelementptr inbounds ([4 x i8], [4 x i8]* @.str.2, i64 0, i64 0), i32 %70)
  %72 = load i32, i32* %3, align 4
  %73 = icmp slt i32 %72, 0
  br i1 %73, label %74, label %75

74:                                               ; preds = %61
  br label %79

75:                                               ; preds = %61
  br label %76

76:                                               ; preds = %75
  %77 = load i32, i32* %1, align 4
  %78 = add nsw i32 %77, 1
  store i32 %78, i32* %1, align 4
  br label %57

79:                                               ; preds = %74, %57
  br label %80

80:                                               ; preds = %79
  %81 = load i32, i32* %2, align 4
  %82 = add nsw i32 %81, 1
  store i32 %82, i32* %2, align 4
  br label %51

83:                                               ; preds = %51
  store i32 1, i32* %1, align 4
  br label %84

84:                                               ; preds = %115, %83
  %85 = load i32, i32* %1, align 4
  %86 = load i32, i32* %5, align 4
  %87 = icmp slt i32 %85, %86
  br i1 %87, label %88, label %118

88:                                               ; preds = %84
  %89 = load i32, i32* %1, align 4
  store i32 %89, i32* %3, align 4
  %90 = load i32, i32* %6, align 4
  %91 = sub nsw i32 %90, 1
  store i32 %91, i32* %2, align 4
  br label %92

92:                                               ; preds = %111, %88
  %93 = load i32, i32* %2, align 4
  %94 = icmp sge i32 %93, 0
  br i1 %94, label %95, label %114

95:                                               ; preds = %92
  %96 = load i32, i32* %3, align 4
  %97 = add nsw i32 %96, 1
  store i32 %97, i32* %3, align 4
  %98 = sext i32 %96 to i64
  %99 = getelementptr inbounds [100 x i32*], [100 x i32*]* %4, i64 0, i64 %98
  %100 = load i32*, i32** %99, align 8
  %101 = load i32, i32* %2, align 4
  %102 = sext i32 %101 to i64
  %103 = getelementptr inbounds i32, i32* %100, i64 %102
  %104 = load i32, i32* %103, align 4
  %105 = call i32 (i8*, ...) @printf(i8* getelementptr inbounds ([4 x i8], [4 x i8]* @.str.2, i64 0, i64 0), i32 %104)
  %106 = load i32, i32* %3, align 4
  %107 = load i32, i32* %5, align 4
  %108 = icmp eq i32 %106, %107
  br i1 %108, label %109, label %110

109:                                              ; preds = %95
  br label %114

110:                                              ; preds = %95
  br label %111

111:                                              ; preds = %110
  %112 = load i32, i32* %2, align 4
  %113 = add nsw i32 %112, -1
  store i32 %113, i32* %2, align 4
  br label %92

114:                                              ; preds = %109, %92
  br label %115

115:                                              ; preds = %114
  %116 = load i32, i32* %1, align 4
  %117 = add nsw i32 %116, 1
  store i32 %117, i32* %1, align 4
  br label %84

118:                                              ; preds = %84
  ret void
}

declare dso_local i32 @__isoc99_scanf(i8*, ...) #1

; Function Attrs: nounwind
declare dso_local noalias i8* @malloc(i64) #2

declare dso_local i32 @printf(i8*, ...) #1


!llvm.module.flags = !{!0}
!llvm.ident = !{!1}

!0 = !{i32 1, !"wchar_size", i32 4}
!1 = !{!"clang version 10.0.0-4ubuntu1 "}
